; Function Attrs: mustprogress uwtable
define hidden noundef i32 @_ZN4cvc58internal6theory7strings5utils15getRepeatAmountENS0_12NodeTemplateILb0EEE(ptr noundef nonnull %0) local_unnamed_addr #4 personality ptr @__gxx_personality_v0 {
  %2 = alloca %"class.cvc5::internal::NodeTemplate", align 8
  call void @llvm.lifetime.start.p0(i64 8, ptr nonnull %2) #23
  call void @_ZNK4cvc58internal12NodeTemplateILb0EE11getOperatorEv(ptr dead_on_unwind nonnull writable sret(%"class.cvc5::internal::NodeTemplate") align 8 %2, ptr noundef nonnull align 8 dereferenceable(8) %0)
  %3 = load ptr, ptr %2, align 8, !tbaa !8
  %4 = invoke noundef nonnull align 4 dereferenceable(4) ptr @_ZNK4cvc58internal4expr9NodeValue8getConstINS0_12RegExpRepeatEEERKT_v(ptr noundef nonnull align 8 dereferenceable(24) %3)
          to label %_ZNK4cvc58internal12NodeTemplateILb1EE8getConstINS0_12RegExpRepeatEEERKT_v.exit unwind label %19

_ZNK4cvc58internal12NodeTemplateILb1EE8getConstINS0_12RegExpRepeatEEERKT_v.exit: ; preds = %1
  %5 = load i32, ptr %4, align 4, !tbaa !248
  %6 = load ptr, ptr %2, align 8, !tbaa !8
  %7 = load i64, ptr %6, align 8
  %8 = and i64 %7, 1152920405095219200
  %.not.i.i = icmp eq i64 %8, 1152920405095219200
  br i1 %.not.i.i, label %_ZN4cvc58internal12NodeTemplateILb1EED2Ev.exit, label %9, !prof !16

9:                                                ; preds = %_ZNK4cvc58internal12NodeTemplateILb1EE8getConstINS0_12RegExpRepeatEEERKT_v.exit
  %10 = add i64 %7, 1152920405095219200
  %11 = and i64 %10, 1152920405095219200
  %12 = and i64 %7, -1152920405095219201
  %13 = or disjoint i64 %11, %12
  store i64 %13, ptr %6, align 8
  %14 = icmp eq i64 %11, 0
  br i1 %14, label %15, label %_ZN4cvc58internal12NodeTemplateILb1EED2Ev.exit, !prof !16

15:                                               ; preds = %9
  invoke void @_ZN4cvc58internal4expr9NodeValue15markForDeletionEv(ptr noundef nonnull align 8 dereferenceable(24) %6)
          to label %_ZN4cvc58internal12NodeTemplateILb1EED2Ev.exit unwind label %16

16:                                               ; preds = %15
  %17 = landingpad { ptr, i32 }
          catch ptr null
  %18 = extractvalue { ptr, i32 } %17, 0
  call void @__clang_call_terminate(ptr %18) #24
  unreachable

_ZN4cvc58internal12NodeTemplateILb1EED2Ev.exit:   ; preds = %_ZNK4cvc58internal12NodeTemplateILb1EE8getConstINS0_12RegExpRepeatEEERKT_v.exit, %9, %15
  call void @llvm.lifetime.end.p0(i64 8, ptr nonnull %2) #23
  ret i32 %5

19:                                               ; preds = %1
  %20 = landingpad { ptr, i32 }
          cleanup
  call void @_ZN4cvc58internal12NodeTemplateILb1EED2Ev(ptr noundef nonnull align 8 dereferenceable(8) %2) #23
  call void @llvm.lifetime.end.p0(i64 8, ptr nonnull %2) #23
  resume { ptr, i32 } %20
}